; Function Attrs: nounwind uwtable
define hidden ptr @SDL_CreateGPUSampler_REAL(ptr noundef readonly captures(address_is_null) %0, ptr noundef %1) local_unnamed_addr #0 {
  %3 = icmp eq ptr %0, null
  br i1 %3, label %4, label %6

4:                                                ; preds = %2
  %5 = tail call zeroext i1 (ptr, ...) @SDL_SetError_REAL(ptr noundef nonnull @.str.3) #7
  br label %16

6:                                                ; preds = %2
  %7 = icmp eq ptr %1, null
  br i1 %7, label %8, label %10

8:                                                ; preds = %6
  %9 = tail call zeroext i1 (ptr, ...) @SDL_SetError_REAL(ptr noundef nonnull @.str.4, ptr noundef nonnull @.str.11) #7
  br label %16

10:                                               ; preds = %6
  %11 = getelementptr inbounds nuw i8, ptr %0, i64 32
  %12 = load ptr, ptr %11, align 8
  %13 = getelementptr inbounds nuw i8, ptr %0, i64 664
  %14 = load ptr, ptr %13, align 8
  %15 = tail call ptr %12(ptr noundef %14, ptr noundef nonnull %1) #7
  br label %16

16:                                               ; preds = %10, %8, %4
  %.0 = phi ptr [ null, %4 ], [ null, %8 ], [ %15, %10 ]
  ret ptr %.0
}